; Function Attrs: mustprogress uwtable
define void @_ZN2cv3Mat7releaseEv(ptr noundef nonnull align 8 captures(none) dereferenceable(96) %0) local_unnamed_addr #1 align 2 personality ptr @__gxx_personality_v0 {
  %2 = getelementptr inbounds nuw i8, ptr %0, i64 56
  %3 = load ptr, ptr %2, align 8, !tbaa !66
  %.not = icmp eq ptr %3, null
  br i1 %.not, label %_ZN2cv3Mat10deallocateEv.exit, label %4

4:                                                ; preds = %1
  %5 = getelementptr inbounds nuw i8, ptr %3, i64 20
  %6 = atomicrmw add ptr %5, i32 -1 acq_rel, align 4
  %7 = icmp eq i32 %6, 1
  br i1 %7, label %8, label %_ZN2cv3Mat10deallocateEv.exit

8:                                                ; preds = %4
  %9 = load ptr, ptr %2, align 8, !tbaa !66
  %.not.i = icmp eq ptr %9, null
  br i1 %.not.i, label %_ZN2cv3Mat10deallocateEv.exit, label %10

10:                                               ; preds = %8
  store ptr null, ptr %2, align 8, !tbaa !66
  %11 = getelementptr inbounds nuw i8, ptr %9, i64 8
  %12 = load ptr, ptr %11, align 8, !tbaa !79
  %.not6.i = icmp eq ptr %12, null
  br i1 %.not6.i, label %13, label %27

13:                                               ; preds = %10
  %14 = getelementptr inbounds nuw i8, ptr %0, i64 48
  %15 = load ptr, ptr %14, align 8, !tbaa !74
  %.not7.i = icmp eq ptr %15, null
  br i1 %.not7.i, label %16, label %27

16:                                               ; preds = %13
  %17 = load atomic i8, ptr @_ZGVZN2cvL25getDefaultAllocatorMatRefEvE14g_matAllocator acquire, align 8
  %18 = icmp eq i8 %17, 0
  br i1 %18, label %19, label %_ZN2cv3Mat19getDefaultAllocatorEv.exit.i, !prof !47

19:                                               ; preds = %16
  %20 = tail call i32 @__cxa_guard_acquire(ptr nonnull @_ZGVZN2cvL25getDefaultAllocatorMatRefEvE14g_matAllocator) #24
  %.not.i.i.i = icmp eq i32 %20, 0
  br i1 %.not.i.i.i, label %_ZN2cv3Mat19getDefaultAllocatorEv.exit.i, label %21

21:                                               ; preds = %19
  %22 = invoke noundef ptr @_ZN2cv3Mat15getStdAllocatorEv()
          to label %23 unwind label %24

23:                                               ; preds = %21
  store ptr %22, ptr @_ZZN2cvL25getDefaultAllocatorMatRefEvE14g_matAllocator, align 8, !tbaa !48
  tail call void @__cxa_guard_release(ptr nonnull @_ZGVZN2cvL25getDefaultAllocatorMatRefEvE14g_matAllocator) #24
  br label %_ZN2cv3Mat19getDefaultAllocatorEv.exit.i

24:                                               ; preds = %21
  %25 = landingpad { ptr, i32 }
          cleanup
  tail call void @__cxa_guard_abort(ptr nonnull @_ZGVZN2cvL25getDefaultAllocatorMatRefEvE14g_matAllocator) #24
  resume { ptr, i32 } %25

_ZN2cv3Mat19getDefaultAllocatorEv.exit.i:         ; preds = %23, %19, %16
  %26 = load ptr, ptr @_ZZN2cvL25getDefaultAllocatorMatRefEvE14g_matAllocator, align 8, !tbaa !48
  br label %27

27:                                               ; preds = %_ZN2cv3Mat19getDefaultAllocatorEv.exit.i, %13, %10
  %28 = phi ptr [ %26, %_ZN2cv3Mat19getDefaultAllocatorEv.exit.i ], [ %12, %10 ], [ %15, %13 ]
  %29 = load ptr, ptr %28, align 8, !tbaa !19
  %30 = getelementptr inbounds nuw i8, ptr %29, i64 48
  %31 = load ptr, ptr %30, align 8
  tail call void %31(ptr noundef nonnull align 8 dereferenceable(8) %28, ptr noundef nonnull %9)
  br label %_ZN2cv3Mat10deallocateEv.exit

_ZN2cv3Mat10deallocateEv.exit:                    ; preds = %27, %8, %4, %1
  store ptr null, ptr %2, align 8, !tbaa !66
  %32 = getelementptr inbounds nuw i8, ptr %0, i64 16
  %33 = getelementptr inbounds nuw i8, ptr %0, i64 4
  tail call void @llvm.memset.p0.i64(ptr noundef nonnull align 8 dereferenceable(32) %32, i8 0, i64 32, i1 false)
  %34 = load i32, ptr %33, align 4, !tbaa !53
  %35 = icmp sgt i32 %34, 0
  br i1 %35, label %.lr.ph, label %._crit_edge

.lr.ph:                                           ; preds = %_ZN2cv3Mat10deallocateEv.exit
  %36 = getelementptr inbounds nuw i8, ptr %0, i64 64
  %37 = load ptr, ptr %36, align 8, !tbaa !58
  br label %38

._crit_edge:                                      ; preds = %38, %_ZN2cv3Mat10deallocateEv.exit
  ret void

38:                                               ; preds = %.lr.ph, %38
  %indvars.iv = phi i64 [ 0, %.lr.ph ], [ %indvars.iv.next, %38 ]
  %39 = getelementptr inbounds nuw i32, ptr %37, i64 %indvars.iv
  store i32 0, ptr %39, align 4, !tbaa !23
  %indvars.iv.next = add nuw nsw i64 %indvars.iv, 1
  %40 = load i32, ptr %33, align 4, !tbaa !53
  %41 = sext i32 %40 to i64
  %42 = icmp slt i64 %indvars.iv.next, %41
  br i1 %42, label %38, label %._crit_edge, !llvm.loop !80
}